Certificate:
    Data:
        Version: 3 (0x2)
        Serial Number: 3 (0x3)
        Signature Algorithm: sha256WithRSAEncryption
        Issuer: C=PT, ST=Porto, L=Porto, O=Universidade do Porto, OU=MSI, CN=SubCAFM
        Validity
            Not Before: May 17 22:20:06 2020 GMT
            Not After : May 17 22:20:06 2021 GMT
        Subject: C=PT, ST=Porto, L=Porto, O=Universidade do Porto, OU=MSI, CN=Client
        Subject Public Key Info:
            Public Key Algorithm: rsaEncryption
                RSA Public-Key: (2048 bit)
                Modulus:
                    00:d5:4c:fe:5f:64:8d:7f:4c:bd:5a:20:ab:11:5b:
                    08:66:3f:ec:95:ea:29:c9:0a:0e:51:63:ef:5b:e8:
                    e2:71:92:a0:b7:71:81:a8:92:bb:ad:2f:68:46:3e:
                    d3:7e:00:90:b3:2f:6d:a8:a0:9c:93:65:05:e7:a2:
                    e3:e5:96:1d:84:03:68:4f:76:1d:73:8f:6b:4b:13:
                    71:33:e6:39:d6:8f:1c:f2:4d:d9:67:ca:e8:f1:6b:
                    4c:4e:80:e1:f6:1d:ba:be:4c:dd:aa:58:74:e3:ae:
                    23:24:42:94:79:09:78:24:12:a7:1d:73:f5:5c:f7:
                    c8:1c:60:71:57:e6:b8:74:32:e4:40:76:a8:87:66:
                    75:54:06:8b:df:48:50:19:e0:1f:ef:ef:2c:1f:de:
                    ad:e9:ee:65:08:16:69:61:4a:a1:f3:52:4b:2e:e4:
                    a8:18:61:f2:81:71:7b:a7:7d:f7:af:e2:89:33:cc:
                    45:c5:2d:8f:33:7e:a3:a7:e3:6c:68:58:08:c3:b0:
                    d8:8c:c7:00:73:4e:0a:84:a2:5e:21:3b:cc:79:0d:
                    c2:89:72:44:ea:3c:d0:4a:a9:0f:7e:5c:ae:75:b1:
                    5c:6c:33:1a:70:62:46:78:5d:44:91:16:ef:f3:cc:
                    42:80:0c:37:bb:c5:f4:d0:a8:de:62:36:f2:96:4b:
                    7d:45
                Exponent: 65537 (0x10001)
        X509v3 extensions:
            X509v3 Basic Constraints: 
                CA:FALSE
            Netscape Comment: 
                OpenSSL Generated Certificate
            X509v3 Subject Key Identifier: 
                C9:F8:04:1A:C2:00:8B:40:9B:2E:66:27:0A:82:8A:DF:1C:71:3D:1C
            X509v3 Authority Key Identifier: 
                keyid:43:44:BA:4F:85:7B:AD:59:2A:0C:E7:0B:FA:3F:1B:48:BB:9E:B1:ED

    Signature Algorithm: sha256WithRSAEncryption
         8f:0c:f1:db:e5:ef:4b:59:10:8b:9b:e9:5b:83:74:ee:48:50:
         a1:54:89:dc:b7:c6:6e:d6:f1:d9:e3:12:f0:79:98:6a:b0:c1:
         c1:6b:cb:95:45:2b:09:2d:e4:3c:13:bc:3f:91:c2:1c:47:4d:
         59:f0:94:c9:ce:21:e7:fd:4c:c6:47:a5:19:e0:c8:18:5f:86:
         f3:3f:e4:0f:c3:b4:fa:8d:21:85:92:85:9c:a1:a3:56:fe:cf:
         dc:86:7c:d9:9d:1d:0d:99:08:1f:36:52:f2:6c:ee:56:21:e1:
         0c:41:13:c4:fa:a5:3f:7f:56:c8:20:5d:43:68:2c:80:49:b7:
         26:f9:5d:11:4b:d0:c9:61:8d:3c:b7:12:86:98:ef:00:65:72:
         e5:ea:94:5a:e0:0f:9a:98:6c:4b:19:03:43:44:be:9f:47:7a:
         78:a7:26:1d:00:45:24:19:8c:42:29:ea:17:ab:29:f3:a6:63:
         3e:53:e3:18:55:1d:37:67:7e:b8:ed:22:58:3b:73:14:61:a8:
         97:3e:38:dc:68:e2:b5:00:91:0b:67:04:a9:f4:bc:fe:92:29:
         b2:f2:1e:5a:9e:61:33:31:5d:c5:d1:8b:53:0d:23:47:db:c6:
         c5:5a:59:2f:7e:33:1c:e3:a0:e1:40:b6:cb:cf:3b:fa:06:5c:
         3b:b6:12:4f
-----BEGIN CERTIFICATE-----
MIIDzzCCAregAwIBAgIBAzANBgkqhkiG9w0BAQsFADBtMQswCQYDVQQGEwJQVDEO
MAwGA1UECAwFUG9ydG8xDjAMBgNVBAcMBVBvcnRvMR4wHAYDVQQKDBVVbml2ZXJz
aWRhZGUgZG8gUG9ydG8xDDAKBgNVBAsMA01TSTEQMA4GA1UEAwwHU3ViQ0FGTTAe
Fw0yMDA1MTcyMjIwMDZaFw0yMTA1MTcyMjIwMDZaMGwxCzAJBgNVBAYTAlBUMQ4w
DAYDVQQIDAVQb3J0bzEOMAwGA1UEBwwFUG9ydG8xHjAcBgNVBAoMFVVuaXZlcnNp
ZGFkZSBkbyBQb3J0bzEMMAoGA1UECwwDTVNJMQ8wDQYDVQQDDAZDbGllbnQwggEi
MA0GCSqGSIb3DQEBAQUAA4IBDwAwggEKAoIBAQDVTP5fZI1/TL1aIKsRWwhmP+yV
6inJCg5RY+9b6OJxkqC3cYGokrutL2hGPtN+AJCzL22ooJyTZQXnouPllh2EA2hP
dh1zj2tLE3Ez5jnWjxzyTdlnyujxa0xOgOH2Hbq+TN2qWHTjriMkQpR5CXgkEqcd
c/Vc98gcYHFX5rh0MuRAdqiHZnVUBovfSFAZ4B/v7ywf3q3p7mUIFmlhSqHzUksu
5KgYYfKBcXunffev4okzzEXFLY8zfqOn42xoWAjDsNiMxwBzTgqEol4hO8x5DcKJ
ckTqPNBKqQ9+XK51sVxsMxpwYkZ4XUSRFu/zzEKADDe7xfTQqN5iNvKWS31FAgMB
AAGjezB5MAkGA1UdEwQCMAAwLAYJYIZIAYb4QgENBB8WHU9wZW5TU0wgR2VuZXJh
dGVkIENlcnRpZmljYXRlMB0GA1UdDgQWBBTJ+AQawgCLQJsuZicKgorfHHE9HDAf
BgNVHSMEGDAWgBRDRLpPhXutWSoM5wv6PxtIu56x7TANBgkqhkiG9w0BAQsFAAOC
AQEAjwzx2+XvS1kQi5vpW4N07khQoVSJ3LfGbtbx2eMS8HmYarDBwWvLlUUrCS3k
PBO8P5HCHEdNWfCUyc4h5/1MxkelGeDIGF+G8z/kD8O0+o0hhZKFnKGjVv7P3IZ8
2Z0dDZkIHzZS8mzuViHhDEETxPqlP39WyCBdQ2gsgEm3JvldEUvQyWGNPLcShpjv
AGVy5eqUWuAPmphsSxkDQ0S+n0d6eKcmHQBFJBmMQinqF6sp86ZjPlPjGFUdN2d+
uO0iWDtzFGGolz443GjitQCRC2cEqfS8/pIpsvIeWp5hMzFdxdGLUw0jR9vGxVpZ
L34zHOOg4UC2y887+gZcO7YSTw==
-----END CERTIFICATE-----
