Certificate:
    Data:
        Version: 3 (0x2)
        Serial Number: 2 (0x2)
        Signature Algorithm: sha256WithRSAEncryption
        Issuer: C=PT, ST=Porto, L=Porto, O=Universidade do Porto, OU=MSI, CN=SubCAFM
        Validity
            Not Before: May 17 22:18:51 2020 GMT
            Not After : May 17 22:18:51 2021 GMT
        Subject: C=PT, ST=Porto, L=Porto, O=Universidade do Porto, OU=MSI, CN=Server
        Subject Public Key Info:
            Public Key Algorithm: rsaEncryption
                RSA Public-Key: (2048 bit)
                Modulus:
                    00:cb:1a:57:57:1f:5f:ac:e8:9d:aa:19:ce:32:10:
                    a2:35:26:19:53:4a:a4:9c:85:97:72:0e:9f:9d:59:
                    d7:90:1b:59:cb:05:b2:f3:cf:52:cb:ef:e9:23:b4:
                    bd:9c:0f:c9:c3:71:97:8c:19:38:12:0b:7e:27:05:
                    a0:ec:46:a3:da:59:c4:2f:8e:8b:25:48:0f:7f:13:
                    6a:4f:6c:63:29:43:9e:66:24:6c:10:de:c7:86:b7:
                    82:67:b6:69:25:e6:dd:c7:14:58:e0:e0:d0:b6:c5:
                    ea:7e:22:35:76:9d:ae:73:a8:fc:3d:e3:2b:86:0b:
                    02:7d:84:92:28:39:b9:91:23:9d:63:ea:59:15:f8:
                    68:17:81:62:75:81:ee:16:ea:34:91:c5:e4:3e:de:
                    f1:ee:8c:38:34:03:c6:f5:75:60:ac:68:b1:24:15:
                    a6:5a:09:c1:2b:28:13:b0:c8:38:40:78:b1:12:a6:
                    dd:4f:2c:3c:cd:93:de:78:ff:6b:d8:10:08:3e:3a:
                    e3:16:e2:c5:b8:3b:d9:a9:84:fd:8d:ec:5d:64:d9:
                    45:25:2a:b5:10:ea:93:e7:06:43:c9:8c:1e:85:f1:
                    14:09:58:51:66:4a:2e:95:e0:9a:d0:e6:5e:2e:9a:
                    cc:d9:b6:de:bc:c1:9d:a3:c1:2a:c7:db:f8:02:98:
                    8a:4d
                Exponent: 65537 (0x10001)
        X509v3 extensions:
            X509v3 Basic Constraints: 
                CA:FALSE
            Netscape Comment: 
                OpenSSL Generated Certificate
            X509v3 Subject Key Identifier: 
                65:76:97:C1:0F:12:38:C4:DF:55:3F:B9:21:36:82:3D:07:37:EC:E7
            X509v3 Authority Key Identifier: 
                keyid:43:44:BA:4F:85:7B:AD:59:2A:0C:E7:0B:FA:3F:1B:48:BB:9E:B1:ED

    Signature Algorithm: sha256WithRSAEncryption
         2a:a1:ca:35:fe:20:f1:a3:6f:fd:d9:0f:ef:2b:c6:64:87:6a:
         52:7e:99:d2:6b:9c:ad:03:52:95:13:b2:69:6c:7e:49:3f:6c:
         80:30:ea:77:37:79:8f:1f:f1:72:af:d9:ec:82:49:02:21:d5:
         a1:f3:0b:63:25:b0:54:68:01:ba:9d:1a:3e:f6:44:62:fc:7b:
         23:10:7a:9d:48:01:03:a5:7f:06:68:1a:17:e8:cc:ba:99:d9:
         e6:e1:d5:2e:2a:06:86:21:51:89:74:c6:66:4c:67:48:55:fc:
         a9:e1:11:7a:57:78:b3:39:83:5b:72:d7:85:f0:30:5e:82:37:
         8b:81:05:94:ee:7e:e0:e6:74:ed:a8:aa:9f:de:ca:61:43:25:
         7c:ba:78:84:43:57:d7:50:6e:48:1d:ff:5b:ed:f5:22:c9:9d:
         19:04:52:bc:5b:42:67:08:6e:4a:37:d0:10:7d:bc:0f:d7:66:
         88:e0:95:03:a3:7f:30:f2:08:b9:ad:32:6c:c7:c1:9e:82:7f:
         36:a3:23:94:5f:2b:ca:86:27:a8:a9:b1:45:6d:2b:db:35:8e:
         ca:30:b8:26:5d:06:ef:7b:a7:cf:41:f8:f2:05:2b:2b:ec:36:
         b8:85:95:8d:7c:13:7b:d3:d5:0c:08:de:77:0b:13:af:72:93:
         be:1b:e9:de
-----BEGIN CERTIFICATE-----
MIIDzzCCAregAwIBAgIBAjANBgkqhkiG9w0BAQsFADBtMQswCQYDVQQGEwJQVDEO
MAwGA1UECAwFUG9ydG8xDjAMBgNVBAcMBVBvcnRvMR4wHAYDVQQKDBVVbml2ZXJz
aWRhZGUgZG8gUG9ydG8xDDAKBgNVBAsMA01TSTEQMA4GA1UEAwwHU3ViQ0FGTTAe
Fw0yMDA1MTcyMjE4NTFaFw0yMTA1MTcyMjE4NTFaMGwxCzAJBgNVBAYTAlBUMQ4w
DAYDVQQIDAVQb3J0bzEOMAwGA1UEBwwFUG9ydG8xHjAcBgNVBAoMFVVuaXZlcnNp
ZGFkZSBkbyBQb3J0bzEMMAoGA1UECwwDTVNJMQ8wDQYDVQQDDAZTZXJ2ZXIwggEi
MA0GCSqGSIb3DQEBAQUAA4IBDwAwggEKAoIBAQDLGldXH1+s6J2qGc4yEKI1JhlT
SqSchZdyDp+dWdeQG1nLBbLzz1LL7+kjtL2cD8nDcZeMGTgSC34nBaDsRqPaWcQv
joslSA9/E2pPbGMpQ55mJGwQ3seGt4Jntmkl5t3HFFjg4NC2xep+IjV2na5zqPw9
4yuGCwJ9hJIoObmRI51j6lkV+GgXgWJ1ge4W6jSRxeQ+3vHujDg0A8b1dWCsaLEk
FaZaCcErKBOwyDhAeLESpt1PLDzNk954/2vYEAg+OuMW4sW4O9mphP2N7F1k2UUl
KrUQ6pPnBkPJjB6F8RQJWFFmSi6V4JrQ5l4umszZtt68wZ2jwSrH2/gCmIpNAgMB
AAGjezB5MAkGA1UdEwQCMAAwLAYJYIZIAYb4QgENBB8WHU9wZW5TU0wgR2VuZXJh
dGVkIENlcnRpZmljYXRlMB0GA1UdDgQWBBRldpfBDxI4xN9VP7khNoI9Bzfs5zAf
BgNVHSMEGDAWgBRDRLpPhXutWSoM5wv6PxtIu56x7TANBgkqhkiG9w0BAQsFAAOC
AQEAKqHKNf4g8aNv/dkP7yvGZIdqUn6Z0mucrQNSlROyaWx+ST9sgDDqdzd5jx/x
cq/Z7IJJAiHVofMLYyWwVGgBup0aPvZEYvx7IxB6nUgBA6V/BmgaF+jMupnZ5uHV
LioGhiFRiXTGZkxnSFX8qeEReld4szmDW3LXhfAwXoI3i4EFlO5+4OZ07aiqn97K
YUMlfLp4hENX11BuSB3/W+31IsmdGQRSvFtCZwhuSjfQEH28D9dmiOCVA6N/MPII
ua0ybMfBnoJ/NqMjlF8ryoYnqKmxRW0r2zWOyjC4Jl0G73unz0H48gUrK+w2uIWV
jXwTe9PVDAjedwsTr3KTvhvp3g==
-----END CERTIFICATE-----
