Certificate:
    Data:
        Version: 3 (0x2)
        Serial Number: 1 (0x1)
        Signature Algorithm: sha256WithRSAEncryption
        Issuer: C=PT, ST=Porto, L=Porto, O=Universidade do Porto, OU=MSI, CN=SubCAFM
        Validity
            Not Before: May 17 21:30:23 2020 GMT
            Not After : May 17 21:30:23 2021 GMT
        Subject: C=PT, ST=Porto, L=Porto, O=Universidade do Porto, OU=MSI, CN=MiguelSilva
        Subject Public Key Info:
            Public Key Algorithm: rsaEncryption
                RSA Public-Key: (2048 bit)
                Modulus:
                    00:b1:e6:f2:f6:54:16:21:0c:93:07:cd:f2:08:b5:
                    6e:89:a9:9c:3a:53:06:dc:23:71:41:e5:a2:06:2a:
                    d7:c8:e9:1d:3e:b6:6d:e0:39:ad:ba:20:9d:ce:b9:
                    43:9d:d6:81:52:45:ed:0b:9a:a4:05:52:5b:23:63:
                    42:b9:a5:6f:f2:37:01:01:63:c8:46:78:18:85:5a:
                    c2:68:16:db:e2:3a:7a:95:6d:6e:03:55:4e:7f:32:
                    77:3c:61:b3:2f:94:25:e0:7c:80:0b:f2:d0:28:58:
                    75:2f:16:f1:79:47:f8:1c:8a:e1:8f:f2:e6:40:80:
                    36:35:a3:22:20:60:af:63:7e:d0:68:66:8d:44:af:
                    62:3a:53:59:ff:de:c6:c2:ef:f6:37:ef:09:5f:9e:
                    3d:c4:74:4e:14:3a:32:be:31:79:40:9d:bb:eb:3d:
                    a0:c8:64:ca:b5:3e:e6:0f:1c:73:e4:ea:cd:f0:7c:
                    85:19:f8:73:08:af:ac:16:dc:0d:55:79:b1:05:bd:
                    16:ea:da:a6:e6:d9:24:65:28:e5:5e:2f:48:cf:12:
                    d2:9d:73:2a:a3:b0:ea:b6:6e:47:e8:b4:a6:e2:5f:
                    05:0c:30:58:95:0b:0b:46:d9:03:bb:a0:a7:e1:b9:
                    6e:db:67:32:af:be:e8:ec:99:77:32:7d:5e:b6:29:
                    3e:11
                Exponent: 65537 (0x10001)
        X509v3 extensions:
            X509v3 Basic Constraints: 
                CA:FALSE
            Netscape Comment: 
                OpenSSL Generated Certificate
            X509v3 Subject Key Identifier: 
                0A:EA:08:89:A7:31:CD:56:67:B3:5D:55:9A:DB:75:A9:57:98:A8:2F
            X509v3 Authority Key Identifier: 
                keyid:43:44:BA:4F:85:7B:AD:59:2A:0C:E7:0B:FA:3F:1B:48:BB:9E:B1:ED

    Signature Algorithm: sha256WithRSAEncryption
         4e:28:c1:4d:b0:6e:fb:60:5b:7a:54:74:fd:aa:0e:da:c8:17:
         9a:5d:b7:95:d2:e0:c7:ba:03:5c:84:fe:2b:f0:95:33:f6:2a:
         98:8f:6e:ec:a0:5b:b5:69:76:1a:06:e6:27:5c:a2:3f:27:54:
         99:20:15:45:83:df:69:b2:c7:73:6b:b9:aa:63:ef:9c:38:3b:
         db:78:2a:0a:e0:c4:cf:1e:88:6f:8e:24:71:9c:95:1d:d2:13:
         af:06:ea:88:09:e6:22:be:b5:15:9b:ec:d9:bc:73:93:46:ac:
         1f:b8:9d:14:22:61:07:32:a2:12:ba:0d:d2:89:55:8d:61:0c:
         95:92:7b:0d:e0:ab:d5:56:6d:2f:62:0f:fa:ef:bb:79:28:26:
         d9:c4:84:0d:fe:a0:68:9c:9a:0d:5f:c4:ef:d5:83:9a:c0:14:
         c1:12:60:0f:39:19:ce:db:a3:d8:6b:0c:48:65:9c:07:3c:f6:
         1a:65:eb:b9:60:99:d3:70:6d:a2:63:44:c0:cd:c1:12:a3:2f:
         2e:d3:0e:27:a6:0e:78:6b:67:68:85:a9:e1:a2:ec:67:e6:cd:
         e9:ac:d5:e9:d5:de:f8:c4:01:18:70:6e:3b:30:4d:e5:58:89:
         39:b4:b2:34:d2:26:58:6e:1a:a7:aa:8c:bb:f9:af:da:0a:94:
         04:1f:0f:b2
-----BEGIN CERTIFICATE-----
MIID1DCCArygAwIBAgIBATANBgkqhkiG9w0BAQsFADBtMQswCQYDVQQGEwJQVDEO
MAwGA1UECAwFUG9ydG8xDjAMBgNVBAcMBVBvcnRvMR4wHAYDVQQKDBVVbml2ZXJz
aWRhZGUgZG8gUG9ydG8xDDAKBgNVBAsMA01TSTEQMA4GA1UEAwwHU3ViQ0FGTTAe
Fw0yMDA1MTcyMTMwMjNaFw0yMTA1MTcyMTMwMjNaMHExCzAJBgNVBAYTAlBUMQ4w
DAYDVQQIDAVQb3J0bzEOMAwGA1UEBwwFUG9ydG8xHjAcBgNVBAoMFVVuaXZlcnNp
ZGFkZSBkbyBQb3J0bzEMMAoGA1UECwwDTVNJMRQwEgYDVQQDDAtNaWd1ZWxTaWx2
YTCCASIwDQYJKoZIhvcNAQEBBQADggEPADCCAQoCggEBALHm8vZUFiEMkwfN8gi1
bompnDpTBtwjcUHlogYq18jpHT62beA5rbognc65Q53WgVJF7QuapAVSWyNjQrml
b/I3AQFjyEZ4GIVawmgW2+I6epVtbgNVTn8ydzxhsy+UJeB8gAvy0ChYdS8W8XlH
+ByK4Y/y5kCANjWjIiBgr2N+0GhmjUSvYjpTWf/exsLv9jfvCV+ePcR0ThQ6Mr4x
eUCdu+s9oMhkyrU+5g8cc+TqzfB8hRn4cwivrBbcDVV5sQW9FurapubZJGUo5V4v
SM8S0p1zKqOw6rZuR+i0puJfBQwwWJULC0bZA7ugp+G5bttnMq++6OyZdzJ9XrYp
PhECAwEAAaN7MHkwCQYDVR0TBAIwADAsBglghkgBhvhCAQ0EHxYdT3BlblNTTCBH
ZW5lcmF0ZWQgQ2VydGlmaWNhdGUwHQYDVR0OBBYEFArqCImnMc1WZ7NdVZrbdalX
mKgvMB8GA1UdIwQYMBaAFENEuk+Fe61ZKgznC/o/G0i7nrHtMA0GCSqGSIb3DQEB
CwUAA4IBAQBOKMFNsG77YFt6VHT9qg7ayBeaXbeV0uDHugNchP4r8JUz9iqYj27s
oFu1aXYaBuYnXKI/J1SZIBVFg99pssdza7mqY++cODvbeCoK4MTPHohvjiRxnJUd
0hOvBuqICeYivrUVm+zZvHOTRqwfuJ0UImEHMqISug3SiVWNYQyVknsN4KvVVm0v
Yg/677t5KCbZxIQN/qBonJoNX8Tv1YOawBTBEmAPORnO26PYawxIZZwHPPYaZeu5
YJnTcG2iY0TAzcESoy8u0w4npg54a2dohanhouxn5s3prNXp1d74xAEYcG47ME3l
WIk5tLI00iZYbhqnqoy7+a/aCpQEHw+y
-----END CERTIFICATE-----
