Certificate:
    Data:
        Version: 3 (0x2)
        Serial Number: 0 (0x0)
        Signature Algorithm: sha256WithRSAEncryption
        Issuer: C=PT, ST=Porto, L=Porto, O=Universidade do Porto, OU=MSI, CN=SubCAFM
        Validity
            Not Before: May 17 21:08:11 2020 GMT
            Not After : May 17 21:08:11 2021 GMT
        Subject: C=PT, ST=Porto, L=Porto, O=Universidade do Porto, OU=MSI, CN=FredericoLopes
        Subject Public Key Info:
            Public Key Algorithm: rsaEncryption
                RSA Public-Key: (2048 bit)
                Modulus:
                    00:b5:8e:3e:6f:19:0d:50:a9:49:57:0c:58:3c:e6:
                    43:2f:7b:c4:b4:fb:67:eb:fe:b6:20:c4:d8:7a:08:
                    2b:82:f6:ad:92:da:86:7a:4b:ac:cb:61:ac:7b:ec:
                    0d:a0:c0:3d:f0:50:68:40:3f:75:1f:44:79:84:0e:
                    8e:a7:b4:42:8b:17:57:c9:f3:c6:68:84:5a:06:40:
                    8e:ad:19:4a:76:ef:22:62:1a:05:62:f5:65:86:8a:
                    19:a8:19:2a:07:ca:9d:5d:f0:17:e8:85:31:6c:c7:
                    4d:e7:4a:05:5b:c6:dc:17:e0:84:98:10:3a:dc:22:
                    f4:9b:91:04:fa:08:7d:72:95:db:ed:2f:89:0a:fc:
                    ab:aa:8a:73:58:2b:aa:ec:28:40:c1:c3:48:c9:b4:
                    b3:d1:7f:09:a9:89:37:62:7f:31:2c:5a:87:58:87:
                    b2:d6:02:9a:1d:74:cf:b7:31:e1:e6:7e:79:c3:33:
                    24:c1:c5:39:08:fb:82:b9:34:8b:77:d4:af:b4:1f:
                    77:80:27:08:96:e9:74:63:ce:64:83:41:c1:7c:22:
                    a9:f7:4b:b8:b1:e1:42:9a:c3:25:6c:93:29:4d:0a:
                    93:54:7f:13:cb:cc:71:35:aa:ef:1e:f8:52:ff:f2:
                    47:56:71:30:f4:6e:17:94:4c:7c:ea:08:0f:52:8a:
                    bc:a5
                Exponent: 65537 (0x10001)
        X509v3 extensions:
            X509v3 Basic Constraints: 
                CA:FALSE
            Netscape Comment: 
                OpenSSL Generated Certificate
            X509v3 Subject Key Identifier: 
                B1:9C:81:EC:2D:0E:C9:7A:84:41:9D:67:54:53:25:7F:1C:11:2E:2E
            X509v3 Authority Key Identifier: 
                keyid:43:44:BA:4F:85:7B:AD:59:2A:0C:E7:0B:FA:3F:1B:48:BB:9E:B1:ED

    Signature Algorithm: sha256WithRSAEncryption
         68:88:a8:d6:00:40:1f:66:2d:f7:e0:24:8b:72:01:1b:b2:48:
         28:83:a0:45:93:53:08:19:e6:a3:8a:ef:ca:71:82:f1:52:a7:
         13:c0:cb:0f:5b:61:c1:f3:1f:38:a3:f3:d6:20:d8:61:c7:95:
         a8:9f:02:d8:ed:56:6e:78:9b:c1:6c:18:8e:a2:66:a6:9b:b6:
         c5:bb:fc:eb:11:b2:c2:dd:82:78:3a:c4:00:49:a1:25:1e:45:
         c9:60:a6:3f:1b:b4:1f:0d:28:b3:64:2b:e9:9c:3c:6c:19:18:
         c8:79:d2:4f:0e:36:3b:3c:16:c7:e7:3c:ed:ff:d7:43:9e:57:
         0d:a5:ae:48:51:b2:00:d3:de:c1:60:9a:bb:0d:de:5d:78:62:
         8d:d9:31:47:ec:b8:14:d1:da:4b:5d:a7:1d:08:47:84:56:e1:
         fe:4a:dc:07:17:31:88:53:37:c7:88:07:d1:92:6c:32:42:92:
         81:bb:3f:5d:df:94:8b:68:50:d8:a7:ac:dd:e7:ea:17:e7:2c:
         36:66:af:15:d3:c2:db:99:0e:d7:07:a2:60:df:49:d5:a2:ff:
         85:21:e8:0b:ab:1b:39:f7:11:ec:fc:89:6f:b8:3a:4a:25:3d:
         45:1f:36:c3:28:b2:d1:c0:6f:d6:8a:47:06:18:43:d9:e0:f9:
         41:74:df:b3
-----BEGIN CERTIFICATE-----
MIID1zCCAr+gAwIBAgIBADANBgkqhkiG9w0BAQsFADBtMQswCQYDVQQGEwJQVDEO
MAwGA1UECAwFUG9ydG8xDjAMBgNVBAcMBVBvcnRvMR4wHAYDVQQKDBVVbml2ZXJz
aWRhZGUgZG8gUG9ydG8xDDAKBgNVBAsMA01TSTEQMA4GA1UEAwwHU3ViQ0FGTTAe
Fw0yMDA1MTcyMTA4MTFaFw0yMTA1MTcyMTA4MTFaMHQxCzAJBgNVBAYTAlBUMQ4w
DAYDVQQIDAVQb3J0bzEOMAwGA1UEBwwFUG9ydG8xHjAcBgNVBAoMFVVuaXZlcnNp
ZGFkZSBkbyBQb3J0bzEMMAoGA1UECwwDTVNJMRcwFQYDVQQDDA5GcmVkZXJpY29M
b3BlczCCASIwDQYJKoZIhvcNAQEBBQADggEPADCCAQoCggEBALWOPm8ZDVCpSVcM
WDzmQy97xLT7Z+v+tiDE2HoIK4L2rZLahnpLrMthrHvsDaDAPfBQaEA/dR9EeYQO
jqe0QosXV8nzxmiEWgZAjq0ZSnbvImIaBWL1ZYaKGagZKgfKnV3wF+iFMWzHTedK
BVvG3BfghJgQOtwi9JuRBPoIfXKV2+0viQr8q6qKc1grquwoQMHDSMm0s9F/CamJ
N2J/MSxah1iHstYCmh10z7cx4eZ+ecMzJMHFOQj7grk0i3fUr7Qfd4AnCJbpdGPO
ZINBwXwiqfdLuLHhQprDJWyTKU0Kk1R/E8vMcTWq7x74Uv/yR1ZxMPRuF5RMfOoI
D1KKvKUCAwEAAaN7MHkwCQYDVR0TBAIwADAsBglghkgBhvhCAQ0EHxYdT3BlblNT
TCBHZW5lcmF0ZWQgQ2VydGlmaWNhdGUwHQYDVR0OBBYEFLGcgewtDsl6hEGdZ1RT
JX8cES4uMB8GA1UdIwQYMBaAFENEuk+Fe61ZKgznC/o/G0i7nrHtMA0GCSqGSIb3
DQEBCwUAA4IBAQBoiKjWAEAfZi334CSLcgEbskgog6BFk1MIGeajiu/KcYLxUqcT
wMsPW2HB8x84o/PWINhhx5WonwLY7VZueJvBbBiOomamm7bFu/zrEbLC3YJ4OsQA
SaElHkXJYKY/G7QfDSizZCvpnDxsGRjIedJPDjY7PBbH5zzt/9dDnlcNpa5IUbIA
097BYJq7Dd5deGKN2TFH7LgU0dpLXacdCEeEVuH+StwHFzGIUzfHiAfRkmwyQpKB
uz9d35SLaFDYp6zd5+oX5yw2Zq8V08LbmQ7XB6Jg30nVov+FIegLqxs59xHs/Ilv
uDpKJT1FHzbDKLLRwG/WikcGGEPZ4PlBdN+z
-----END CERTIFICATE-----
