Certificate:
    Data:
        Version: 3 (0x2)
        Serial Number: 2 (0x2)
        Signature Algorithm: sha256WithRSAEncryption
        Issuer: C=PT, ST=Porto, L=Porto, O=Universidade do Porto, OU=MSI, CN=SubCAFM
        Validity
            Not Before: May 19 16:03:45 2020 GMT
            Not After : May 19 16:03:45 2021 GMT
        Subject: C=PT, ST=Porto, L=Porto, O=Universidade do Porto, OU=MSI, CN=FredericoLopes/emailAddress=up201604674@fc.up.pt
        Subject Public Key Info:
            Public Key Algorithm: rsaEncryption
                RSA Public-Key: (2048 bit)
                Modulus:
                    00:c4:cd:41:44:0a:13:ab:4c:f7:33:5a:9b:b6:6b:
                    50:e7:13:94:fd:42:85:b0:05:26:9b:fa:70:6e:b0:
                    e3:74:4b:89:47:fe:73:68:16:95:af:7a:96:04:7a:
                    8b:aa:25:7e:af:c5:01:72:50:19:ff:4b:11:58:02:
                    9c:17:10:6c:7a:41:f9:27:0b:b2:1c:74:3f:2d:df:
                    af:5b:9d:f9:4b:58:e0:6e:bd:9c:35:a6:7d:2f:e3:
                    74:21:64:96:c4:aa:1e:d0:82:e8:21:35:9c:7d:7e:
                    7d:e3:4e:fc:d5:8e:46:5f:38:af:db:1d:56:b3:ab:
                    25:bc:28:3c:48:13:7e:b8:75:52:8a:13:2c:6b:8f:
                    de:b0:b2:c2:04:a3:8c:1f:ca:ce:9a:ae:56:33:54:
                    d1:20:f7:25:c5:78:cd:6a:bc:26:34:cd:fb:ea:50:
                    5e:4d:86:3c:7d:7b:fc:f0:3b:55:d7:ef:d8:45:49:
                    b8:11:00:f4:c1:64:a5:8f:5c:0f:bc:0b:db:b7:2f:
                    10:b0:e2:2e:7e:69:f9:04:cc:a2:0a:e9:59:5c:ed:
                    a0:8a:bd:e9:65:1b:5a:bb:e0:a4:13:60:ba:c8:3a:
                    40:34:f1:80:8c:1f:99:89:a7:e5:de:e9:4a:76:48:
                    43:2c:a9:0a:a7:32:dc:9f:57:44:25:ae:3f:62:87:
                    eb:2d
                Exponent: 65537 (0x10001)
        X509v3 extensions:
            X509v3 Basic Constraints: 
                CA:FALSE
            Netscape Comment: 
                OpenSSL Generated Certificate
            X509v3 Subject Key Identifier: 
                1E:5C:92:90:D3:69:12:02:61:13:54:56:5F:2B:0C:30:AD:79:4F:34
            X509v3 Authority Key Identifier: 
                keyid:43:44:BA:4F:85:7B:AD:59:2A:0C:E7:0B:FA:3F:1B:48:BB:9E:B1:ED

    Signature Algorithm: sha256WithRSAEncryption
         1d:e7:22:45:ba:6d:c5:c2:6d:b0:73:62:87:ac:dc:b4:ca:29:
         a1:48:85:e9:28:76:79:38:fc:da:22:71:a7:ff:a8:7d:6c:19:
         ae:f0:8b:7a:2e:f3:f9:0b:cb:6d:1d:50:0f:84:b6:55:47:47:
         47:92:b7:17:9a:6b:f1:ab:59:3a:00:c4:15:12:b4:4b:06:f0:
         59:79:c7:ea:d3:ce:da:96:06:23:65:d4:24:f0:2b:2d:7a:65:
         bf:66:8b:d7:f3:87:9e:41:c7:ca:4a:bf:1a:88:03:8c:85:d3:
         71:70:11:db:76:38:32:75:52:05:72:33:7b:ae:54:d5:b4:a9:
         9a:aa:63:c6:19:b1:0a:fc:2f:bc:37:22:1e:0b:d9:29:b5:dd:
         76:ca:ae:4b:b3:ea:1f:c4:9c:fa:48:c3:3b:cf:62:9b:04:4c:
         c3:4f:23:ab:9a:36:ca:e5:a1:a3:fa:55:17:3d:d3:5a:d6:16:
         1c:c7:24:f2:f4:36:e6:db:d2:29:7c:31:69:5a:39:fa:aa:99:
         ce:26:c1:c1:89:36:68:83:cb:5d:3b:12:ed:08:2e:1f:93:e9:
         8a:dd:9c:a3:d4:11:39:d2:2d:11:20:6d:ef:f2:9c:c9:16:3b:
         af:6b:d6:77:4c:28:d8:a2:2b:57:a3:15:07:12:f2:03:e2:68:
         93:cd:4a:1b
-----BEGIN CERTIFICATE-----
MIID/TCCAuWgAwIBAgIBAjANBgkqhkiG9w0BAQsFADBtMQswCQYDVQQGEwJQVDEO
MAwGA1UECAwFUG9ydG8xDjAMBgNVBAcMBVBvcnRvMR4wHAYDVQQKDBVVbml2ZXJz
aWRhZGUgZG8gUG9ydG8xDDAKBgNVBAsMA01TSTEQMA4GA1UEAwwHU3ViQ0FGTTAe
Fw0yMDA1MTkxNjAzNDVaFw0yMTA1MTkxNjAzNDVaMIGZMQswCQYDVQQGEwJQVDEO
MAwGA1UECAwFUG9ydG8xDjAMBgNVBAcMBVBvcnRvMR4wHAYDVQQKDBVVbml2ZXJz
aWRhZGUgZG8gUG9ydG8xDDAKBgNVBAsMA01TSTEXMBUGA1UEAwwORnJlZGVyaWNv
TG9wZXMxIzAhBgkqhkiG9w0BCQEWFHVwMjAxNjA0Njc0QGZjLnVwLnB0MIIBIjAN
BgkqhkiG9w0BAQEFAAOCAQ8AMIIBCgKCAQEAxM1BRAoTq0z3M1qbtmtQ5xOU/UKF
sAUmm/pwbrDjdEuJR/5zaBaVr3qWBHqLqiV+r8UBclAZ/0sRWAKcFxBsekH5Jwuy
HHQ/Ld+vW535S1jgbr2cNaZ9L+N0IWSWxKoe0ILoITWcfX5940781Y5GXziv2x1W
s6slvCg8SBN+uHVSihMsa4/esLLCBKOMH8rOmq5WM1TRIPclxXjNarwmNM376lBe
TYY8fXv88DtV1+/YRUm4EQD0wWSlj1wPvAvbty8QsOIufmn5BMyiCulZXO2gir3p
ZRtau+CkE2C6yDpANPGAjB+Ziafl3ulKdkhDLKkKpzLcn1dEJa4/YofrLQIDAQAB
o3sweTAJBgNVHRMEAjAAMCwGCWCGSAGG+EIBDQQfFh1PcGVuU1NMIEdlbmVyYXRl
ZCBDZXJ0aWZpY2F0ZTAdBgNVHQ4EFgQUHlySkNNpEgJhE1RWXysMMK15TzQwHwYD
VR0jBBgwFoAUQ0S6T4V7rVkqDOcL+j8bSLuese0wDQYJKoZIhvcNAQELBQADggEB
AB3nIkW6bcXCbbBzYoes3LTKKaFIhekodnk4/Noicaf/qH1sGa7wi3ou8/kLy20d
UA+EtlVHR0eStxeaa/GrWToAxBUStEsG8Fl5x+rTztqWBiNl1CTwKy16Zb9mi9fz
h55Bx8pKvxqIA4yF03FwEdt2ODJ1UgVyM3uuVNW0qZqqY8YZsQr8L7w3Ih4L2Sm1
3XbKrkuz6h/EnPpIwzvPYpsETMNPI6uaNsrloaP6VRc901rWFhzHJPL0Nubb0il8
MWlaOfqqmc4mwcGJNmiDy107Eu0ILh+T6YrdnKPUETnSLREgbe/ynMkWO69r1ndM
KNiiK1ejFQcS8gPiaJPNShs=
-----END CERTIFICATE-----
