Certificate:
    Data:
        Version: 3 (0x2)
        Serial Number: 3 (0x3)
        Signature Algorithm: sha256WithRSAEncryption
        Issuer: C=PT, ST=Porto, L=Porto, O=Universidade do Porto, OU=MSI, CN=SubCAFM
        Validity
            Not Before: May 19 16:05:40 2020 GMT
            Not After : May 19 16:05:40 2021 GMT
        Subject: C=PT, ST=Porto, L=Porto, O=Universidade do Porto, OU=MSI, CN=MiguelSilva/emailAddress=up201605989@fc.up.pt
        Subject Public Key Info:
            Public Key Algorithm: rsaEncryption
                RSA Public-Key: (2048 bit)
                Modulus:
                    00:c2:c4:a7:69:9a:56:b7:9c:1a:a2:ed:ee:5c:d9:
                    84:7c:5f:01:1c:a8:22:0f:22:75:fa:dc:c4:94:90:
                    30:33:c6:db:93:ba:4a:20:7e:a2:8b:76:5c:e8:94:
                    06:c2:d7:4e:ac:1c:7f:17:52:22:6c:09:16:af:ab:
                    2c:10:92:e3:12:ca:5a:82:e9:ff:85:c0:75:c1:aa:
                    ad:d8:da:5c:df:2e:9d:53:6a:f1:c5:88:85:c3:21:
                    82:db:93:2a:51:43:73:af:20:a6:3e:3c:85:40:3e:
                    76:24:4f:da:17:cb:97:81:cd:17:11:61:2b:52:1b:
                    eb:9a:44:b4:a3:e4:8f:dd:e3:46:8a:44:94:7a:de:
                    87:c8:e0:04:c6:d2:a5:97:2d:34:06:2e:98:77:08:
                    83:5e:85:be:ae:e0:f6:1f:33:66:78:d0:f1:9b:70:
                    c6:39:b4:fb:54:35:8a:6f:a6:c1:8b:c2:1d:04:5e:
                    84:8e:10:3e:21:92:17:1b:14:ff:79:00:a4:28:7e:
                    de:ba:1c:56:3b:80:ee:44:ae:9b:48:f3:3a:1e:23:
                    98:0c:c5:27:ea:04:73:db:f1:36:c3:b4:c2:d4:13:
                    d7:42:54:ab:eb:39:33:d1:95:61:f2:c9:1e:dd:a4:
                    b4:16:d1:a2:e1:01:ec:ed:10:f0:69:67:f7:c0:ea:
                    b5:39
                Exponent: 65537 (0x10001)
        X509v3 extensions:
            X509v3 Basic Constraints: 
                CA:FALSE
            Netscape Comment: 
                OpenSSL Generated Certificate
            X509v3 Subject Key Identifier: 
                2D:2A:F7:BD:55:D4:A3:B3:2E:B6:99:58:4C:7C:C2:A3:50:9F:47:3F
            X509v3 Authority Key Identifier: 
                keyid:43:44:BA:4F:85:7B:AD:59:2A:0C:E7:0B:FA:3F:1B:48:BB:9E:B1:ED

    Signature Algorithm: sha256WithRSAEncryption
         11:c1:e9:a1:0d:f0:a9:56:f8:29:04:e0:ce:04:2a:68:ae:e1:
         e5:83:64:4a:9a:19:12:7c:84:a4:da:f3:ed:a5:c4:be:02:e3:
         f5:c3:ae:c9:cd:00:e9:ca:7b:2f:8c:4b:7a:53:80:2c:cf:dc:
         af:f5:17:71:de:79:2f:ba:07:47:8e:2e:66:0e:7b:8c:e8:9a:
         0e:62:73:e1:4f:1e:93:fc:ef:3b:40:50:63:dc:bb:4c:d7:ad:
         bd:4e:bc:50:6a:e1:29:33:c3:9f:63:01:d3:40:84:dc:b1:c9:
         0e:88:c7:35:da:a5:cb:13:e4:0c:1c:d5:03:e4:2e:13:fc:1c:
         13:da:f9:80:1b:45:03:70:e8:d3:1d:50:19:be:fa:28:95:72:
         f9:3f:83:1e:3b:e7:98:7d:3f:cd:de:02:ec:d4:b7:f7:6b:d7:
         9a:3d:7c:59:4d:b9:44:58:83:9b:c0:70:d3:43:e8:d8:eb:2f:
         f8:1b:55:81:f3:ca:ec:f4:27:fc:63:26:4c:69:89:e5:86:27:
         05:af:71:63:08:51:9c:36:28:a1:53:54:f3:f8:83:44:84:7c:
         0c:5a:a7:95:5b:6f:8a:3f:8b:3e:a0:68:c6:45:25:c7:14:f6:
         ea:e3:d8:8a:7a:44:38:a8:6c:2e:b1:79:df:36:67:3b:c0:fa:
         62:e1:65:c6
-----BEGIN CERTIFICATE-----
MIID+jCCAuKgAwIBAgIBAzANBgkqhkiG9w0BAQsFADBtMQswCQYDVQQGEwJQVDEO
MAwGA1UECAwFUG9ydG8xDjAMBgNVBAcMBVBvcnRvMR4wHAYDVQQKDBVVbml2ZXJz
aWRhZGUgZG8gUG9ydG8xDDAKBgNVBAsMA01TSTEQMA4GA1UEAwwHU3ViQ0FGTTAe
Fw0yMDA1MTkxNjA1NDBaFw0yMTA1MTkxNjA1NDBaMIGWMQswCQYDVQQGEwJQVDEO
MAwGA1UECAwFUG9ydG8xDjAMBgNVBAcMBVBvcnRvMR4wHAYDVQQKDBVVbml2ZXJz
aWRhZGUgZG8gUG9ydG8xDDAKBgNVBAsMA01TSTEUMBIGA1UEAwwLTWlndWVsU2ls
dmExIzAhBgkqhkiG9w0BCQEWFHVwMjAxNjA1OTg5QGZjLnVwLnB0MIIBIjANBgkq
hkiG9w0BAQEFAAOCAQ8AMIIBCgKCAQEAwsSnaZpWt5waou3uXNmEfF8BHKgiDyJ1
+tzElJAwM8bbk7pKIH6ii3Zc6JQGwtdOrBx/F1IibAkWr6ssEJLjEspagun/hcB1
waqt2Npc3y6dU2rxxYiFwyGC25MqUUNzryCmPjyFQD52JE/aF8uXgc0XEWErUhvr
mkS0o+SP3eNGikSUet6HyOAExtKlly00Bi6YdwiDXoW+ruD2HzNmeNDxm3DGObT7
VDWKb6bBi8IdBF6EjhA+IZIXGxT/eQCkKH7euhxWO4DuRK6bSPM6HiOYDMUn6gRz
2/E2w7TC1BPXQlSr6zkz0ZVh8ske3aS0FtGi4QHs7RDwaWf3wOq1OQIDAQABo3sw
eTAJBgNVHRMEAjAAMCwGCWCGSAGG+EIBDQQfFh1PcGVuU1NMIEdlbmVyYXRlZCBD
ZXJ0aWZpY2F0ZTAdBgNVHQ4EFgQULSr3vVXUo7MutplYTHzCo1CfRz8wHwYDVR0j
BBgwFoAUQ0S6T4V7rVkqDOcL+j8bSLuese0wDQYJKoZIhvcNAQELBQADggEBABHB
6aEN8KlW+CkE4M4EKmiu4eWDZEqaGRJ8hKTa8+2lxL4C4/XDrsnNAOnKey+MS3pT
gCzP3K/1F3HeeS+6B0eOLmYOe4zomg5ic+FPHpP87ztAUGPcu0zXrb1OvFBq4Skz
w59jAdNAhNyxyQ6IxzXapcsT5Awc1QPkLhP8HBPa+YAbRQNw6NMdUBm++iiVcvk/
gx4755h9P83eAuzUt/dr15o9fFlNuURYg5vAcNND6NjrL/gbVYHzyuz0J/xjJkxp
ieWGJwWvcWMIUZw2KKFTVPP4g0SEfAxap5Vbb4o/iz6gaMZFJccU9urj2Ip6RDio
bC6xed82ZzvA+mLhZcY=
-----END CERTIFICATE-----
